target datalayout = "e-m:e-p270:32:32-p271:32:32-p272:64:64-i64:64-i128:128-f80:128-n8:16:32:64-S128"
target triple = "x86_64-pc-linux-gnu"

%struct.lstopo_output = type { ptr, i32, i32, i32, ptr, i32, i32, i32, i32, i32, i32, i32, i32, ptr, ptr, i32, i32, i64, i64, i64, i32, [3 x [128 x i8]], i32, i32, ptr, i32, i32, i32, i32, i32, i32, %struct.hwloc_calc_level, i32, i32, i32, i64, [256 x i8], i32, i32, i32, i32, i32, float, [20 x i32], i32, i32, i32, [20 x i32], i32, [20 x i32], i32, [20 x i32], i32, i32, i32, i32, ptr, ptr, i32, [20 x i32], [20 x i32], [20 x i32], ptr, ptr, i64, ptr, i32, i32, i32 }
%struct.hwloc_calc_level = type { i32, i32, %union.hwloc_obj_attr_u, [32 x i8], i32, i32, i32, i32 }
%union.hwloc_obj_attr_u = type { %struct.hwloc_numanode_attr_s, [24 x i8] }
%struct.hwloc_numanode_attr_s = type { i64, i32, ptr }
%struct.lstopo_color = type { i32, i32, i32, i32, %union.lstopo_color_private_u, ptr }
%union.lstopo_color_private_u = type { %struct.lstopo_color_private_ascii_s }
%struct.lstopo_color_private_ascii_s = type { i32 }
%struct.lstopo_color_private_fig_s = type { i32 }
%struct.hwloc_obj = type { i32, ptr, i32, ptr, i64, ptr, i32, i32, ptr, ptr, ptr, i32, ptr, ptr, i32, ptr, ptr, ptr, i32, i32, ptr, i32, ptr, i32, ptr, ptr, ptr, ptr, ptr, %struct.hwloc_infos_s, ptr, i64 }
%struct.hwloc_infos_s = type { ptr, i32, i32 }
%struct.lstopo_obj_userdata = type { %struct.hwloc_utils_userdata, i32, i32, %struct.lstopo_style, i32, i32, i32, i32, %struct.lstopo_children_position, %struct.lstopo_children_position, %struct.lstopo_children_position, %struct.lstopo_children_position, i32, i32, i32, [4 x %struct.lstopo_text_line], i32, i32 }
%struct.hwloc_utils_userdata = type { ptr, i64, ptr, ptr }
%struct.lstopo_style = type { ptr, ptr, ptr }
%struct.lstopo_children_position = type { i32, i32, i32, i32, i32, i32, ptr }
%struct.lstopo_text_line = type { [128 x i8], i32, i32 }

@.str.15 = private unnamed_addr constant [45 x i8] c"4 0 %d %u -1 %u %d 0.0 4 %d %d %u %u %s\\001\0A\00", align 1

; Function Attrs: inlinehint nounwind uwtable
define internal i32 @lstopo_obj_cpukind_style(ptr noundef %0, ptr noundef %1) #5 {
  %3 = alloca i32, align 4
  %4 = alloca ptr, align 8
  %5 = alloca ptr, align 8
  %6 = alloca ptr, align 8
  store ptr %0, ptr %4, align 8, !tbaa !4
  store ptr %1, ptr %5, align 8, !tbaa !36
  %7 = load ptr, ptr %4, align 8, !tbaa !4
  %8 = getelementptr inbounds nuw %struct.lstopo_output, ptr %7, i32 0, i32 55
  %9 = load i32, ptr %8, align 8, !tbaa !41
  %10 = icmp ne i32 %9, 0
  br i1 %10, label %11, label %27

11:                                               ; preds = %2
  %12 = load ptr, ptr %5, align 8, !tbaa !36
  %13 = icmp ne ptr %12, null
  br i1 %13, label %14, label %26

14:                                               ; preds = %11
  %15 = load ptr, ptr %5, align 8, !tbaa !36
  %16 = getelementptr inbounds nuw %struct.hwloc_obj, ptr %15, i32 0, i32 30
  %17 = load ptr, ptr %16, align 8, !tbaa !42
  %18 = icmp ne ptr %17, null
  br i1 %18, label %19, label %26

19:                                               ; preds = %14
  call void @llvm.lifetime.start.p0(i64 8, ptr %6) #7
  %20 = load ptr, ptr %5, align 8, !tbaa !36
  %21 = getelementptr inbounds nuw %struct.hwloc_obj, ptr %20, i32 0, i32 30
  %22 = load ptr, ptr %21, align 8, !tbaa !42
  store ptr %22, ptr %6, align 8, !tbaa !48
  %23 = load ptr, ptr %6, align 8, !tbaa !48
  %24 = getelementptr inbounds nuw %struct.lstopo_obj_userdata, ptr %23, i32 0, i32 5
  %25 = load i32, ptr %24, align 4, !tbaa !50
  store i32 %25, ptr %3, align 4
  call void @llvm.lifetime.end.p0(i64 8, ptr %6) #7
  br label %28

26:                                               ; preds = %14, %11
  br label %27

27:                                               ; preds = %26, %2
  store i32 0, ptr %3, align 4
  br label %28

28:                                               ; preds = %27, %19
  %29 = load i32, ptr %3, align 4
  ret i32 %29
}

; Function Attrs: nounwind uwtable
define internal void @fig_text(ptr noundef %0, ptr noundef %1, i32 noundef %2, i32 noundef %3, i32 noundef %4, i32 noundef %5, ptr noundef %6, ptr noundef %7, i32 noundef %8) #0 {
  %10 = alloca ptr, align 8
  %11 = alloca ptr, align 8
  %12 = alloca i32, align 4
  %13 = alloca i32, align 4
  %14 = alloca i32, align 4
  %15 = alloca i32, align 4
  %16 = alloca ptr, align 8
  %17 = alloca ptr, align 8
  %18 = alloca i32, align 4
  %19 = alloca ptr, align 8
  %20 = alloca i32, align 4
  %21 = alloca i32, align 4
  %22 = alloca i32, align 4
  %23 = alloca i32, align 4
  store ptr %0, ptr %10, align 8, !tbaa !4
  store ptr %1, ptr %11, align 8, !tbaa !29
  store i32 %2, ptr %12, align 4, !tbaa !24
  store i32 %3, ptr %13, align 4, !tbaa !24
  store i32 %4, ptr %14, align 4, !tbaa !24
  store i32 %5, ptr %15, align 4, !tbaa !24
  store ptr %6, ptr %16, align 8, !tbaa !9
  store ptr %7, ptr %17, align 8, !tbaa !36
  store i32 %8, ptr %18, align 4, !tbaa !24
  call void @llvm.lifetime.start.p0(i64 8, ptr %19) #7
  %24 = load ptr, ptr %10, align 8, !tbaa !4
  %25 = getelementptr inbounds nuw %struct.lstopo_output, ptr %24, i32 0, i32 4
  %26 = load ptr, ptr %25, align 8, !tbaa !25
  store ptr %26, ptr %19, align 8, !tbaa !23
  call void @llvm.lifetime.start.p0(i64 4, ptr %20) #7
  %27 = load ptr, ptr %10, align 8, !tbaa !4
  %28 = load ptr, ptr %17, align 8, !tbaa !36
  %29 = call i32 @lstopo_obj_cpukind_style(ptr noundef %27, ptr noundef %28)
  store i32 %29, ptr %20, align 4, !tbaa !24
  call void @llvm.lifetime.start.p0(i64 4, ptr %21) #7
  store i32 0, ptr %21, align 4, !tbaa !24
  call void @llvm.lifetime.start.p0(i64 4, ptr %22) #7
  %30 = load ptr, ptr %16, align 8, !tbaa !9
  %31 = call i64 @strlen(ptr noundef %30) #9
  %32 = trunc i64 %31 to i32
  store i32 %32, ptr %22, align 4, !tbaa !24
  call void @llvm.lifetime.start.p0(i64 4, ptr %23) #7
  %33 = load i32, ptr %20, align 4, !tbaa !24
  %34 = urem i32 %33, 2
  %35 = icmp ne i32 %34, 0
  br i1 %35, label %36, label %37

36:                                               ; preds = %9
  store i32 2, ptr %21, align 4, !tbaa !24
  br label %37

37:                                               ; preds = %36, %9
  %38 = load ptr, ptr %11, align 8, !tbaa !29
  %39 = getelementptr inbounds nuw %struct.lstopo_color, ptr %38, i32 0, i32 4
  %40 = getelementptr inbounds nuw %struct.lstopo_color_private_fig_s, ptr %39, i32 0, i32 0
  %41 = load i32, ptr %40, align 8, !tbaa !35
  store i32 %41, ptr %23, align 4, !tbaa !24
  %42 = load i32, ptr %14, align 4, !tbaa !24
  %43 = mul i32 %42, 20
  store i32 %43, ptr %14, align 4, !tbaa !24
  %44 = load i32, ptr %15, align 4, !tbaa !24
  %45 = mul i32 %44, 20
  store i32 %45, ptr %15, align 4, !tbaa !24
  %46 = load i32, ptr %12, align 4, !tbaa !24
  %47 = mul nsw i32 %46, 20
  %48 = mul nsw i32 %47, 2
  %49 = sdiv i32 %48, 10
  %50 = load i32, ptr %14, align 4, !tbaa !24
  %51 = add i32 %50, %49
  store i32 %51, ptr %14, align 4, !tbaa !24
  %52 = load i32, ptr %12, align 4, !tbaa !24
  %53 = mul nsw i32 %52, 20
  %54 = mul nsw i32 %53, 4
  %55 = sdiv i32 %54, 10
  %56 = load i32, ptr %15, align 4, !tbaa !24
  %57 = add i32 %56, %55
  store i32 %57, ptr %15, align 4, !tbaa !24
  %58 = load i32, ptr %12, align 4, !tbaa !24
  %59 = mul nsw i32 %58, 11
  %60 = sdiv i32 %59, 10
  store i32 %60, ptr %12, align 4, !tbaa !24
  %61 = load ptr, ptr %19, align 8, !tbaa !23
  %62 = load i32, ptr %23, align 4, !tbaa !24
  %63 = load i32, ptr %13, align 4, !tbaa !24
  %64 = load i32, ptr %21, align 4, !tbaa !24
  %65 = load i32, ptr %12, align 4, !tbaa !24
  %66 = load i32, ptr %12, align 4, !tbaa !24
  %67 = mul nsw i32 %66, 20
  %68 = load i32, ptr %22, align 4, !tbaa !24
  %69 = load i32, ptr %12, align 4, !tbaa !24
  %70 = mul nsw i32 %68, %69
  %71 = sdiv i32 %70, 2
  %72 = mul nsw i32 %71, 20
  %73 = load i32, ptr %14, align 4, !tbaa !24
  %74 = load i32, ptr %15, align 4, !tbaa !24
  %75 = load i32, ptr %12, align 4, !tbaa !24
  %76 = mul nsw i32 %75, 10
  %77 = add i32 %74, %76
  %78 = load ptr, ptr %16, align 8, !tbaa !9
  %79 = call i32 (ptr, ptr, ...) @fprintf(ptr noundef %61, ptr noundef @.str.15, i32 noundef %62, i32 noundef %63, i32 noundef %64, i32 noundef %65, i32 noundef %67, i32 noundef %72, i32 noundef %73, i32 noundef %77, ptr noundef %78) #7
  call void @llvm.lifetime.end.p0(i64 4, ptr %23) #7
  call void @llvm.lifetime.end.p0(i64 4, ptr %22) #7
  call void @llvm.lifetime.end.p0(i64 4, ptr %21) #7
  call void @llvm.lifetime.end.p0(i64 4, ptr %20) #7
  call void @llvm.lifetime.end.p0(i64 8, ptr %19) #7
  ret void
}