; Function Attrs: nofree nounwind uwtable
define internal void @fig_text(ptr noundef readonly captures(none) %0, ptr noundef readonly captures(none) %1, i32 noundef %2, i32 noundef %3, i32 noundef %4, i32 noundef %5, ptr noundef %6, ptr noundef readonly captures(address_is_null) %7, i32 %8) #5 {
  %10 = getelementptr inbounds nuw i8, ptr %0, i64 24
  %11 = load ptr, ptr %10, align 8, !tbaa !22
  %12 = getelementptr i8, ptr %0, i64 1304
  %.val = load i32, ptr %12, align 8, !tbaa !32
  %13 = icmp ne i32 %.val, 0
  %14 = icmp ne ptr %7, null
  %or.cond.i = and i1 %14, %13
  br i1 %or.cond.i, label %15, label %lstopo_obj_cpukind_style.exit

15:                                               ; preds = %9
  %16 = getelementptr inbounds nuw i8, ptr %7, i64 232
  %17 = load ptr, ptr %16, align 8, !tbaa !33
  %.not.i = icmp eq ptr %17, null
  br i1 %.not.i, label %lstopo_obj_cpukind_style.exit, label %18

18:                                               ; preds = %15
  %19 = getelementptr inbounds nuw i8, ptr %17, i64 68
  %20 = load i32, ptr %19, align 4, !tbaa !40
  %21 = shl i32 %20, 1
  %22 = and i32 %21, 2
  br label %lstopo_obj_cpukind_style.exit

lstopo_obj_cpukind_style.exit:                    ; preds = %9, %15, %18
  %.0.i = phi i32 [ %22, %18 ], [ 0, %15 ], [ 0, %9 ]
  %23 = tail call i64 @strlen(ptr noundef nonnull dereferenceable(1) %6) #12
  %24 = trunc i64 %23 to i32
  %25 = getelementptr inbounds nuw i8, ptr %1, i64 16
  %26 = load i32, ptr %25, align 8, !tbaa !31
  %27 = mul i32 %4, 20
  %28 = mul i32 %5, 20
  %29 = shl nsw i32 %2, 2
  %30 = add i32 %27, %29
  %31 = shl nsw i32 %2, 3
  %32 = mul nsw i32 %2, 11
  %33 = sdiv i32 %32, 10
  %34 = mul nsw i32 %33, 20
  %35 = mul nsw i32 %33, %24
  %36 = sdiv i32 %35, 2
  %37 = mul nsw i32 %36, 20
  %38 = mul nsw i32 %33, 10
  %39 = add i32 %38, %31
  %40 = add i32 %39, %28
  %41 = tail call i32 (ptr, ptr, ...) @fprintf(ptr noundef %11, ptr noundef nonnull @.str.15, i32 noundef %26, i32 noundef %3, i32 noundef %.0.i, i32 noundef %33, i32 noundef %34, i32 noundef %37, i32 noundef %30, i32 noundef %40, ptr noundef nonnull %6) #9
  ret void
}